target datalayout = "e-m:e-p270:32:32-p271:32:32-p272:64:64-i64:64-i128:128-f80:128-n8:16:32:64-S128"
target triple = "x86_64-unknown-linux-gnu"

%"class.v8::IndirectHandleBase" = type { ptr }
%"class.node::MemoryRetainer" = type { ptr }
%"class.v8::Global.17" = type { %"class.v8::PersistentBase.18" }
%"class.v8::PersistentBase.18" = type { %"class.v8::IndirectHandleBase" }
%"class.node::(anonymous namespace)::Parser" = type { %"class.node::AsyncWrap", %"class.node::StreamListener", %struct.llhttp__internal_s, [32 x %"struct.node::(anonymous namespace)::StringPtr"], [32 x %"struct.node::(anonymous namespace)::StringPtr"], %"struct.node::(anonymous namespace)::StringPtr", %"struct.node::(anonymous namespace)::StringPtr", i64, i64, i8, i8, i64, ptr, i8, i8, i64, i64, i64, ptr, %"class.node::BaseObjectPtrImpl.328" }
%"class.node::AsyncWrap" = type { %"class.node::BaseObject", i32, i8, double, double }
%"class.node::BaseObject" = type { %"class.node::MemoryRetainer", %"class.v8::Global.17", ptr, ptr }
%"class.node::StreamListener" = type { ptr, ptr, ptr }
%struct.llhttp__internal_s = type { i32, ptr, ptr, i32, ptr, ptr, ptr, ptr, i64, i8, i8, i8, i8, i8, i16, i8, i8, i16, i16, i8, ptr }
%"struct.node::(anonymous namespace)::StringPtr" = type { ptr, i8, i64 }
%"class.node::BaseObjectPtrImpl.328" = type { %union.anon.329 }
%union.anon.329 = type { ptr }
%"class.node::ContainerOfHelper" = type { ptr }

@.str.123 = private unnamed_addr constant [19 x i8] c"Paused in callback\00", align 1

; Function Attrs: mustprogress nounwind uwtable
define internal noundef i64 @_ZN4node8OffsetOfI18llhttp__internal_sNS_12_GLOBAL__N_16ParserEEEmMT0_T_(i64 %field) #4 {
entry:
  %field.addr = alloca i64, align 8
  store i64 %field, ptr %field.addr, align 8
  %0 = load i64, ptr %field.addr, align 8
  %memptr.offset = getelementptr inbounds i8, ptr null, i64 %0
  %1 = ptrtoint ptr %memptr.offset to i64
  ret i64 %1
}

; Function Attrs: mustprogress nounwind uwtable
define internal void @_ZN4node17ContainerOfHelperI18llhttp__internal_sNS_12_GLOBAL__N_16ParserEEC2EMS3_S1_PS1_(ptr noundef nonnull align 8 dereferenceable(8) %this, i64 %field, ptr noundef %pointer) unnamed_addr #4 align 2 {
entry:
  %this.addr = alloca ptr, align 8
  %field.addr = alloca i64, align 8
  %pointer.addr = alloca ptr, align 8
  store ptr %this, ptr %this.addr, align 8
  store i64 %field, ptr %field.addr, align 8
  store ptr %pointer, ptr %pointer.addr, align 8
  %this1 = load ptr, ptr %this.addr, align 8
  %pointer_ = getelementptr inbounds %"class.node::ContainerOfHelper", ptr %this1, i32 0, i32 0
  %0 = load ptr, ptr %pointer.addr, align 8
  %1 = ptrtoint ptr %0 to i64
  %2 = load i64, ptr %field.addr, align 8
  %call = call noundef i64 @_ZN4node8OffsetOfI18llhttp__internal_sNS_12_GLOBAL__N_16ParserEEEmMT0_T_(i64 %2)
  %sub = sub i64 %1, %call
  %3 = inttoptr i64 %sub to ptr
  store ptr %3, ptr %pointer_, align 8
  ret void
}

; Function Attrs: mustprogress nounwind uwtable
define internal noundef i32 @_ZN4node12_GLOBAL__N_16Parser10MaybePauseEv(ptr noundef nonnull align 8 dereferenceable(1848) %this) #4 align 2 {
entry:
  %retval = alloca i32, align 4
  %this.addr = alloca ptr, align 8
  store ptr %this, ptr %this.addr, align 8
  %this1 = load ptr, ptr %this.addr, align 8
  %pending_pause_ = getelementptr inbounds %"class.node::(anonymous namespace)::Parser", ptr %this1, i32 0, i32 14
  %0 = load i8, ptr %pending_pause_, align 1
  %tobool = trunc i8 %0 to i1
  br i1 %tobool, label %if.end, label %if.then

if.then:                                          ; preds = %entry
  store i32 0, ptr %retval, align 4
  br label %return

if.end:                                           ; preds = %entry
  %pending_pause_2 = getelementptr inbounds %"class.node::(anonymous namespace)::Parser", ptr %this1, i32 0, i32 14
  store i8 0, ptr %pending_pause_2, align 1
  %parser_ = getelementptr inbounds %"class.node::(anonymous namespace)::Parser", ptr %this1, i32 0, i32 2
  call void @llhttp_set_error_reason(ptr noundef %parser_, ptr noundef @.str.123)
  store i32 21, ptr %retval, align 4
  br label %return

return:                                           ; preds = %if.end, %if.then
  %1 = load i32, ptr %retval, align 4
  ret i32 %1
}

; Function Attrs: mustprogress nounwind uwtable
define internal noundef ptr @_ZNK4node17ContainerOfHelperI18llhttp__internal_sNS_12_GLOBAL__N_16ParserEEcvPT_IS3_EEv(ptr noundef nonnull align 8 dereferenceable(8) %this) #4 align 2 {
entry:
  %this.addr = alloca ptr, align 8
  store ptr %this, ptr %this.addr, align 8
  %this1 = load ptr, ptr %this.addr, align 8
  %pointer_ = getelementptr inbounds %"class.node::ContainerOfHelper", ptr %this1, i32 0, i32 0
  %0 = load ptr, ptr %pointer_, align 8
  ret ptr %0
}

; Function Attrs: mustprogress nounwind uwtable
define internal ptr @_ZN4node11ContainerOfI18llhttp__internal_sNS_12_GLOBAL__N_16ParserEEENS_17ContainerOfHelperIT_T0_EEMS6_S5_PS5_(i64 %field, ptr noundef %pointer) #4 {
entry:
  %retval = alloca %"class.node::ContainerOfHelper", align 8
  %field.addr = alloca i64, align 8
  %pointer.addr = alloca ptr, align 8
  store i64 %field, ptr %field.addr, align 8
  store ptr %pointer, ptr %pointer.addr, align 8
  %0 = load i64, ptr %field.addr, align 8
  %1 = load ptr, ptr %pointer.addr, align 8
  call void @_ZN4node17ContainerOfHelperI18llhttp__internal_sNS_12_GLOBAL__N_16ParserEEC2EMS3_S1_PS1_(ptr noundef nonnull align 8 dereferenceable(8) %retval, i64 %0, ptr noundef %1)
  %coerce.dive = getelementptr inbounds %"class.node::ContainerOfHelper", ptr %retval, i32 0, i32 0
  %2 = load ptr, ptr %coerce.dive, align 8
  ret ptr %2
}

; Function Attrs: mustprogress nounwind uwtable
define internal noundef i32 @_ZN4node12_GLOBAL__N_16Parser5ProxyIMS1_FiPKcmEXadL_ZNS1_15on_header_fieldES4_mEEE3RawEP18llhttp__internal_sS4_m(ptr noundef %p, ptr noundef %args, i64 noundef %args1) #4 align 2 {
entry:
  %p.addr = alloca ptr, align 8
  %args.addr = alloca ptr, align 8
  %args.addr2 = alloca i64, align 8
  %parser = alloca ptr, align 8
  %ref.tmp = alloca %"class.node::ContainerOfHelper", align 8
  %rv = alloca i32, align 4
  store ptr %p, ptr %p.addr, align 8
  store ptr %args, ptr %args.addr, align 8
  store i64 %args1, ptr %args.addr2, align 8
  %0 = load ptr, ptr %p.addr, align 8
  %call = call ptr @_ZN4node11ContainerOfI18llhttp__internal_sNS_12_GLOBAL__N_16ParserEEENS_17ContainerOfHelperIT_T0_EEMS6_S5_PS5_(i64 80, ptr noundef %0)
  %coerce.dive = getelementptr inbounds %"class.node::ContainerOfHelper", ptr %ref.tmp, i32 0, i32 0
  store ptr %call, ptr %coerce.dive, align 8
  %call3 = call noundef ptr @_ZNK4node17ContainerOfHelperI18llhttp__internal_sNS_12_GLOBAL__N_16ParserEEcvPT_IS3_EEv(ptr noundef nonnull align 8 dereferenceable(8) %ref.tmp)
  store ptr %call3, ptr %parser, align 8
  %1 = load ptr, ptr %parser, align 8
  %2 = getelementptr inbounds i8, ptr %1, i64 0
  br i1 false, label %memptr.virtual, label %memptr.nonvirtual

memptr.virtual:                                   ; preds = %entry
  %vtable = load ptr, ptr %2, align 8
  %3 = getelementptr i8, ptr %vtable, i64 sub (i64 ptrtoint (ptr @_ZN4node12_GLOBAL__N_16Parser15on_header_fieldEPKcm to i64), i64 1), !nosanitize !15
  %memptr.virtualfn = load ptr, ptr %3, align 8, !nosanitize !15
  br label %memptr.end

memptr.nonvirtual:                                ; preds = %entry
  br label %memptr.end

memptr.end:                                       ; preds = %memptr.nonvirtual, %memptr.virtual
  %4 = phi ptr [ %memptr.virtualfn, %memptr.virtual ], [ @_ZN4node12_GLOBAL__N_16Parser15on_header_fieldEPKcm, %memptr.nonvirtual ]
  %5 = load ptr, ptr %args.addr, align 8
  %6 = load i64, ptr %args.addr2, align 8
  %call4 = call noundef i32 %4(ptr noundef nonnull align 8 dereferenceable(1848) %2, ptr noundef %5, i64 noundef %6)
  store i32 %call4, ptr %rv, align 4
  %7 = load i32, ptr %rv, align 4
  %cmp = icmp eq i32 %7, 0
  br i1 %cmp, label %if.then, label %if.end

if.then:                                          ; preds = %memptr.end
  %8 = load ptr, ptr %parser, align 8
  %call5 = call noundef i32 @_ZN4node12_GLOBAL__N_16Parser10MaybePauseEv(ptr noundef nonnull align 8 dereferenceable(1848) %8)
  store i32 %call5, ptr %rv, align 4
  br label %if.end

if.end:                                           ; preds = %if.then, %memptr.end
  %9 = load i32, ptr %rv, align 4
  ret i32 %9
}