; Function Attrs: mustprogress nounwind uwtable
define internal noundef i32 @_ZN4node12_GLOBAL__N_16Parser5ProxyIMS1_FiPKcmEXadL_ZNS1_15on_header_fieldES4_mEEE3RawEP18llhttp__internal_sS4_m(ptr noundef %p, ptr noundef %args, i64 noundef %args1) #3 align 2 {
entry:
  %0 = ptrtoint ptr %p to i64
  %sub.i.i = add i64 %0, -80
  %1 = inttoptr i64 %sub.i.i to ptr
  %header_nread_.i.i = getelementptr inbounds i8, ptr %1, i64 1808
  %2 = load i64, ptr %header_nread_.i.i, align 8
  %add.i.i = add i64 %2, %args1
  store i64 %add.i.i, ptr %header_nread_.i.i, align 8
  %max_http_header_size_.i.i = getelementptr inbounds i8, ptr %1, i64 1816
  %3 = load i64, ptr %max_http_header_size_.i.i, align 8
  %cmp.not.i.i = icmp ult i64 %add.i.i, %3
  br i1 %cmp.not.i.i, label %if.end.i, label %if.end.sink.split

if.end.i:                                         ; preds = %entry
  %num_fields_.i = getelementptr inbounds i8, ptr %1, i64 1760
  %4 = load i64, ptr %num_fields_.i, align 8
  %num_values_.i = getelementptr inbounds i8, ptr %1, i64 1768
  %5 = load i64, ptr %num_values_.i, align 8
  %cmp2.i = icmp eq i64 %4, %5
  br i1 %cmp2.i, label %if.then3.i, label %do.body.i

if.then3.i:                                       ; preds = %if.end.i
  %inc.i = add i64 %4, 1
  store i64 %inc.i, ptr %num_fields_.i, align 8
  %cmp6.i = icmp eq i64 %inc.i, 32
  br i1 %cmp6.i, label %if.then7.i, label %if.end10.i

if.then7.i:                                       ; preds = %if.then3.i
  tail call fastcc void @_ZN4node12_GLOBAL__N_16Parser5FlushEv(ptr noundef nonnull align 8 dereferenceable(1848) %1)
  store i64 1, ptr %num_fields_.i, align 8
  store i64 0, ptr %num_values_.i, align 8
  br label %if.end10.i

if.end10.i:                                       ; preds = %if.then7.i, %if.then3.i
  %sub.i = phi i64 [ 0, %if.then7.i ], [ %4, %if.then3.i ]
  %fields_.i = getelementptr inbounds i8, ptr %1, i64 176
  %arrayidx.i = getelementptr inbounds [32 x %"struct.node::(anonymous namespace)::StringPtr"], ptr %fields_.i, i64 0, i64 %sub.i
  %on_heap_.i.i = getelementptr inbounds i8, ptr %arrayidx.i, i64 8
  %6 = load i8, ptr %on_heap_.i.i, align 8
  %7 = and i8 %6, 1
  %tobool.not.i.i = icmp eq i8 %7, 0
  br i1 %tobool.not.i.i, label %_ZN4node12_GLOBAL__N_19StringPtr5ResetEv.exit.i, label %if.then.i3.i

if.then.i3.i:                                     ; preds = %if.end10.i
  %8 = load ptr, ptr %arrayidx.i, align 8
  %isnull.i.i = icmp eq ptr %8, null
  br i1 %isnull.i.i, label %delete.end.i.i, label %delete.notnull.i.i

delete.notnull.i.i:                               ; preds = %if.then.i3.i
  tail call void @_ZdaPv(ptr noundef nonnull %8) #23
  br label %delete.end.i.i

delete.end.i.i:                                   ; preds = %delete.notnull.i.i, %if.then.i3.i
  store i8 0, ptr %on_heap_.i.i, align 8
  br label %_ZN4node12_GLOBAL__N_19StringPtr5ResetEv.exit.i

_ZN4node12_GLOBAL__N_19StringPtr5ResetEv.exit.i:  ; preds = %delete.end.i.i, %if.end10.i
  store ptr null, ptr %arrayidx.i, align 8
  %size_.i.i = getelementptr inbounds i8, ptr %arrayidx.i, i64 16
  store i64 0, ptr %size_.i.i, align 8
  %.pr.i = load i64, ptr %num_fields_.i, align 8
  br label %do.body.i

do.body.i:                                        ; preds = %_ZN4node12_GLOBAL__N_19StringPtr5ResetEv.exit.i, %if.end.i
  %9 = phi i64 [ %4, %if.end.i ], [ %.pr.i, %_ZN4node12_GLOBAL__N_19StringPtr5ResetEv.exit.i ]
  %cmp14.i = icmp ugt i64 %9, 31
  br i1 %cmp14.i, label %do.body18.i, label %do.body21.i

do.body18.i:                                      ; preds = %do.body.i
  tail call void @_ZN4node6AssertERKNS_13AssertionInfoE(ptr noundef nonnull align 8 dereferenceable(24) @_ZZN4node12_GLOBAL__N_16Parser15on_header_fieldEPKcmE4args) #20
  tail call void @abort() #22
  unreachable

do.body21.i:                                      ; preds = %do.body.i
  %10 = load i64, ptr %num_values_.i, align 8
  %add.i = add i64 %10, 1
  %cmp24.not.i = icmp eq i64 %9, %add.i
  br i1 %cmp24.not.i, label %do.end32.i, label %do.body29.i

do.body29.i:                                      ; preds = %do.body21.i
  tail call void @_ZN4node6AssertERKNS_13AssertionInfoE(ptr noundef nonnull align 8 dereferenceable(24) @_ZZN4node12_GLOBAL__N_16Parser15on_header_fieldEPKcmE4args_0) #20
  tail call void @abort() #22
  unreachable

do.end32.i:                                       ; preds = %do.body21.i
  %fields_33.i = getelementptr inbounds i8, ptr %1, i64 176
  %sub35.i = add nsw i64 %9, -1
  %arrayidx36.i = getelementptr inbounds [32 x %"struct.node::(anonymous namespace)::StringPtr"], ptr %fields_33.i, i64 0, i64 %sub35.i
  %11 = load ptr, ptr %arrayidx36.i, align 8
  %cmp.i.i = icmp eq ptr %11, null
  br i1 %cmp.i.i, label %if.end19.sink.split.i.i, label %if.else.i.i

if.else.i.i:                                      ; preds = %do.end32.i
  %on_heap_.i4.i = getelementptr inbounds i8, ptr %arrayidx36.i, i64 8
  %12 = load i8, ptr %on_heap_.i4.i, align 8
  %13 = and i8 %12, 1
  %tobool.not.i5.i = icmp eq i8 %13, 0
  %size_.i6.i = getelementptr inbounds i8, ptr %arrayidx36.i, i64 16
  %14 = load i64, ptr %size_.i6.i, align 8
  %add.ptr.i.i = getelementptr inbounds i8, ptr %11, i64 %14
  %cmp4.not.i.i = icmp eq ptr %add.ptr.i.i, %args
  %or.cond.i.i = select i1 %tobool.not.i5.i, i1 %cmp4.not.i.i, i1 false
  br i1 %or.cond.i.i, label %if.then, label %if.then5.i.i

if.then5.i.i:                                     ; preds = %if.else.i.i
  %add.i7.i = add i64 %14, %args1
  %call.i.i = tail call noalias noundef nonnull ptr @_Znam(i64 noundef %add.i7.i) #21
  tail call void @llvm.memcpy.p0.p0.i64(ptr nonnull align 1 %call.i.i, ptr nonnull align 1 %11, i64 %14, i1 false)
  %add.ptr10.i.i = getelementptr inbounds i8, ptr %call.i.i, i64 %14
  tail call void @llvm.memcpy.p0.p0.i64(ptr nonnull align 1 %add.ptr10.i.i, ptr align 1 %args, i64 %args1, i1 false)
  br i1 %tobool.not.i5.i, label %if.else15.i.i, label %delete.notnull.i8.i

delete.notnull.i8.i:                              ; preds = %if.then5.i.i
  tail call void @_ZdaPv(ptr noundef nonnull %11) #23
  br label %if.end19.sink.split.i.i

if.else15.i.i:                                    ; preds = %if.then5.i.i
  store i8 1, ptr %on_heap_.i4.i, align 8
  br label %if.end19.sink.split.i.i

if.end19.sink.split.i.i:                          ; preds = %if.else15.i.i, %delete.notnull.i8.i, %do.end32.i
  %call.sink.i.i = phi ptr [ %args, %do.end32.i ], [ %call.i.i, %delete.notnull.i8.i ], [ %call.i.i, %if.else15.i.i ]
  store ptr %call.sink.i.i, ptr %arrayidx36.i, align 8
  %size_20.i.phi.trans.insert.i = getelementptr inbounds i8, ptr %arrayidx36.i, i64 16
  %.pre.i = load i64, ptr %size_20.i.phi.trans.insert.i, align 8
  br label %if.then

if.then:                                          ; preds = %if.else.i.i, %if.end19.sink.split.i.i
  %15 = phi i64 [ %14, %if.else.i.i ], [ %.pre.i, %if.end19.sink.split.i.i ]
  %size_20.i.i = getelementptr inbounds i8, ptr %arrayidx36.i, i64 16
  %add21.i.i = add i64 %15, %args1
  store i64 %add21.i.i, ptr %size_20.i.i, align 8
  %pending_pause_.i = getelementptr inbounds i8, ptr %1, i64 1801
  %16 = load i8, ptr %pending_pause_.i, align 1
  %17 = and i8 %16, 1
  %tobool.not.i = icmp eq i8 %17, 0
  br i1 %tobool.not.i, label %if.end, label %if.end.i3

if.end.i3:                                        ; preds = %if.then
  store i8 0, ptr %pending_pause_.i, align 1
  br label %if.end.sink.split

if.end.sink.split:                                ; preds = %entry, %if.end.i3
  %.str.123.sink = phi ptr [ @.str.123, %if.end.i3 ], [ @.str.124, %entry ]
  %rv.0.ph = phi i32 [ 21, %if.end.i3 ], [ 24, %entry ]
  %parser_.i = getelementptr inbounds i8, ptr %1, i64 80
  tail call void @llhttp_set_error_reason(ptr noundef nonnull %parser_.i, ptr noundef nonnull %.str.123.sink) #20
  br label %if.end

if.end:                                           ; preds = %if.end.sink.split, %if.then
  %rv.0 = phi i32 [ 0, %if.then ], [ %rv.0.ph, %if.end.sink.split ]
  ret i32 %rv.0
}